; Function Attrs: mustprogress nounwind uwtable
define dso_local void @_ZN4Luau7CodeGen3X6412ScopedSpillsD2Ev(ptr nocapture noundef nonnull readonly align 8 dereferenceable(12) %0) unnamed_addr #11 align 2 personality ptr @__gxx_personality_v0 {
  %2 = load ptr, ptr %0, align 8
  %3 = getelementptr inbounds i8, ptr %2, i64 232
  %4 = getelementptr inbounds i8, ptr %2, i64 240
  %5 = load ptr, ptr %4, align 8
  %6 = load ptr, ptr %3, align 8
  %.not7 = icmp eq ptr %5, %6
  br i1 %.not7, label %._crit_edge, label %.lr.ph

.lr.ph:                                           ; preds = %1
  %7 = getelementptr inbounds i8, ptr %0, i64 8
  br label %8

8:                                                ; preds = %.lr.ph, %25
  %9 = phi ptr [ %2, %.lr.ph ], [ %26, %25 ]
  %10 = phi ptr [ %6, %.lr.ph ], [ %30, %25 ]
  %.06 = phi i64 [ 0, %.lr.ph ], [ %.1, %25 ]
  %11 = getelementptr inbounds %"struct.Luau::CodeGen::X64::IrSpillX64", ptr %10, i64 %.06
  %12 = getelementptr inbounds i8, ptr %11, i64 8
  %13 = load i32, ptr %12, align 4
  %14 = load i32, ptr %7, align 8
  %.not = icmp ult i32 %13, %14
  br i1 %.not, label %23, label %15

15:                                               ; preds = %8
  %16 = getelementptr inbounds i8, ptr %9, i64 8
  %17 = load ptr, ptr %16, align 8
  %18 = getelementptr inbounds i8, ptr %17, i64 24
  %19 = load i32, ptr %11, align 4
  %20 = zext i32 %19 to i64
  %21 = load ptr, ptr %18, align 8
  %22 = getelementptr inbounds %"struct.Luau::CodeGen::IrInst", ptr %21, i64 %20
  invoke void @_ZN4Luau7CodeGen3X6413IrRegAllocX647restoreERNS0_6IrInstEb(ptr noundef nonnull align 8 dereferenceable(256) %9, ptr noundef nonnull align 4 dereferenceable(43) %22, i1 noundef zeroext true)
          to label %._crit_edge8 unwind label %36

._crit_edge8:                                     ; preds = %15
  %.pre = load ptr, ptr %0, align 8
  br label %25

23:                                               ; preds = %8
  %24 = add nuw i64 %.06, 1
  br label %25

25:                                               ; preds = %._crit_edge8, %23
  %26 = phi ptr [ %.pre, %._crit_edge8 ], [ %9, %23 ]
  %.1 = phi i64 [ %.06, %._crit_edge8 ], [ %24, %23 ]
  %27 = getelementptr inbounds i8, ptr %26, i64 232
  %28 = getelementptr inbounds i8, ptr %26, i64 240
  %29 = load ptr, ptr %28, align 8
  %30 = load ptr, ptr %27, align 8
  %31 = ptrtoint ptr %29 to i64
  %32 = ptrtoint ptr %30 to i64
  %33 = sub i64 %31, %32
  %34 = ashr exact i64 %33, 4
  %35 = icmp ult i64 %.1, %34
  br i1 %35, label %8, label %._crit_edge, !llvm.loop !14

._crit_edge:                                      ; preds = %25, %1
  ret void

36:                                               ; preds = %15
  %37 = landingpad { ptr, i32 }
          catch ptr null
  %38 = extractvalue { ptr, i32 } %37, 0
  tail call void @__clang_call_terminate(ptr %38) #21
  unreachable
}